; Function Attrs: mustprogress nofree norecurse nosync nounwind willreturn memory(argmem: write) uwtable
define hidden void @_ZN4cvc58internal13preprocessing4util22ContainsTermITEVisitorC2Ev(ptr noundef nonnull align 8 dereferenceable(56) initializes((32, 40)) %0) unnamed_addr #8 align 2 {
  %2 = getelementptr inbounds nuw i8, ptr %0, i64 32
  store i64 0, ptr %2, align 8
  %3 = getelementptr inbounds nuw i8, ptr %0, i64 48
  store ptr %3, ptr %0, align 8, !tbaa !6
  %4 = getelementptr inbounds nuw i8, ptr %0, i64 8
  store i64 1, ptr %4, align 8, !tbaa !16
  %5 = getelementptr inbounds nuw i8, ptr %0, i64 16
  %6 = getelementptr inbounds nuw i8, ptr %0, i64 32
  tail call void @llvm.memset.p0.i64(ptr noundef nonnull align 8 dereferenceable(16) %5, i8 0, i64 16, i1 false)
  store float 1.000000e+00, ptr %6, align 8, !tbaa !17
  %7 = getelementptr inbounds nuw i8, ptr %0, i64 40
  tail call void @llvm.memset.p0.i64(ptr noundef nonnull align 8 dereferenceable(16) %7, i8 0, i64 16, i1 false)
  ret void
}